; Function Attrs: mustprogress nofree norecurse nosync nounwind willreturn memory(argmem: readwrite) uwtable
define noundef nonnull align 8 dereferenceable(136) ptr @_ZN6icu_7722FormattedStringBuilder5clearEv(ptr noundef nonnull returned align 8 dereferenceable(136) initializes((128, 136)) %0) local_unnamed_addr #10 align 2 {
  %2 = load i8, ptr %0, align 8, !tbaa !3, !range !11, !noundef !12
  %3 = trunc nuw i8 %2 to i1
  %4 = getelementptr inbounds nuw i8, ptr %0, i64 16
  %5 = load i32, ptr %4, align 8
  %6 = sdiv i32 %5, 2
  %7 = select i1 %3, i32 %6, i32 20
  %8 = getelementptr inbounds nuw i8, ptr %0, i64 128
  store i32 %7, ptr %8, align 8, !tbaa !9
  %9 = getelementptr inbounds nuw i8, ptr %0, i64 132
  store i32 0, ptr %9, align 4, !tbaa !10
  ret ptr %0
}